; ModuleID = 'bench/mitsuba3/original/globals.cpp.ll'
source_filename = "bench/mitsuba3/original/globals.cpp.ll"
target datalayout = "e-m:e-p270:32:32-p271:32:32-p272:64:64-i64:64-i128:128-f80:128-n8:16:32:64-S128"
target triple = "x86_64-pc-linux-gnu"

@_ZZN6asmjit9_abi_1_1010DebugUtils13errorAsStringEjE12sErrorString = internal constant [1246 x i8] c"Ok\00OutOfMemory\00InvalidArgument\00InvalidState\00InvalidArch\00NotInitialized\00AlreadyInitialized\00FeatureNotEnabled\00TooManyHandles\00TooLarge\00NoCodeGenerated\00InvalidDirective\00InvalidLabel\00TooManyLabels\00LabelAlreadyBound\00LabelAlreadyDefined\00LabelNameTooLong\00InvalidLabelName\00InvalidParentLabel\00InvalidSection\00TooManySections\00InvalidSectionName\00TooManyRelocations\00InvalidRelocEntry\00RelocOffsetOutOfRange\00InvalidAssignment\00InvalidInstruction\00InvalidRegType\00InvalidRegGroup\00InvalidPhysId\00InvalidVirtId\00InvalidElementIndex\00InvalidPrefixCombination\00InvalidLockPrefix\00InvalidXAcquirePrefix\00InvalidXReleasePrefix\00InvalidRepPrefix\00InvalidRexPrefix\00InvalidExtraReg\00InvalidKMaskUse\00InvalidKZeroUse\00InvalidBroadcast\00InvalidEROrSAE\00InvalidAddress\00InvalidAddressIndex\00InvalidAddressScale\00InvalidAddress64Bit\00InvalidAddress64BitZeroExtension\00InvalidDisplacement\00InvalidSegment\00InvalidImmediate\00InvalidOperandSize\00AmbiguousOperandSize\00OperandSizeMismatch\00InvalidOption\00OptionAlreadyDefined\00InvalidTypeId\00InvalidUseOfGpbHi\00InvalidUseOfGpq\00InvalidUseOfF80\00NotConsecutiveRegs\00ConsecutiveRegsAllocation\00IllegalVirtReg\00TooManyVirtRegs\00NoMorePhysRegs\00OverlappedRegs\00OverlappingStackRegWithRegArg\00ExpressionLabelNotBound\00ExpressionOverflow\00FailedToOpenAnonymousMemory\00<Unknown>\00\00", align 16
@_ZZN6asmjit9_abi_1_1010DebugUtils13errorAsStringEjE11sErrorIndex = internal unnamed_addr constant [71 x i16] [i16 0, i16 3, i16 15, i16 31, i16 44, i16 56, i16 71, i16 90, i16 108, i16 123, i16 132, i16 148, i16 165, i16 178, i16 192, i16 210, i16 230, i16 247, i16 264, i16 283, i16 298, i16 314, i16 333, i16 352, i16 370, i16 392, i16 410, i16 429, i16 444, i16 460, i16 474, i16 488, i16 508, i16 533, i16 551, i16 573, i16 595, i16 612, i16 629, i16 645, i16 661, i16 677, i16 694, i16 709, i16 724, i16 744, i16 764, i16 784, i16 817, i16 837, i16 852, i16 869, i16 888, i16 909, i16 929, i16 943, i16 964, i16 978, i16 996, i16 1012, i16 1028, i16 1047, i16 1073, i16 1088, i16 1104, i16 1119, i16 1134, i16 1164, i16 1188, i16 1207, i16 1235], align 16
@stderr = external local_unnamed_addr global ptr, align 8
@.str = private unnamed_addr constant [56 x i8] c"[asmjit] Assertion failed at %s (line %d):\0A[asmjit] %s\0A\00", align 1

; Function Attrs: minsize mustprogress nofree norecurse nosync nounwind willreturn memory(none) uwtable
define dso_local noundef nonnull ptr @_ZN6asmjit9_abi_1_1010DebugUtils13errorAsStringEj(i32 noundef %0) local_unnamed_addr #0 {
  %2 = tail call noundef i32 @llvm.umin.i32(i32 %0, i32 70)
  %3 = zext nneg i32 %2 to i64
  %4 = getelementptr inbounds nuw [71 x i16], ptr @_ZZN6asmjit9_abi_1_1010DebugUtils13errorAsStringEjE11sErrorIndex, i64 0, i64 %3
  %5 = load i16, ptr %4, align 2, !tbaa !3
  %6 = zext i16 %5 to i64
  %7 = getelementptr inbounds nuw i8, ptr @_ZZN6asmjit9_abi_1_1010DebugUtils13errorAsStringEjE12sErrorString, i64 %6
  ret ptr %7
}

; Function Attrs: mustprogress nocallback nofree nosync nounwind willreturn memory(argmem: readwrite)
declare void @llvm.lifetime.start.p0(i64 immarg, ptr captures(none)) #1

; Function Attrs: cold minsize mustprogress nofree nounwind uwtable
define dso_local void @_ZN6asmjit9_abi_1_1010DebugUtils11debugOutputEPKc(ptr noundef readonly captures(none) %0) local_unnamed_addr #2 personality ptr @__gxx_personality_v0 {
  %2 = load ptr, ptr @stderr, align 8, !tbaa !7
  %3 = tail call i32 @fputs(ptr noundef %0, ptr noundef %2) #7
  ret void
}

; Function Attrs: nofree nounwind
declare noundef i32 @fputs(ptr noundef readonly captures(none), ptr noundef captures(none)) local_unnamed_addr #3

declare i32 @__gxx_personality_v0(...)

; Function Attrs: cold minsize mustprogress nofree noreturn nounwind uwtable
define dso_local void @_ZN6asmjit9_abi_1_1010DebugUtils15assertionFailedEPKciS3_(ptr noundef %0, i32 noundef %1, ptr noundef %2) local_unnamed_addr #4 {
  %4 = alloca [1024 x i8], align 16
  call void @llvm.lifetime.start.p0(i64 1024, ptr nonnull %4) #8
  %5 = call i32 (ptr, i64, ptr, ...) @snprintf(ptr noundef nonnull dereferenceable(1) %4, i64 noundef 1024, ptr noundef nonnull @.str, ptr noundef %0, i32 noundef %1, ptr noundef %2) #8
  call void @_ZN6asmjit9_abi_1_1010DebugUtils11debugOutputEPKc(ptr noundef nonnull %4) #8
  tail call void @abort() #9
  unreachable
}

; Function Attrs: nofree nounwind
declare noundef i32 @snprintf(ptr noalias noundef writeonly captures(none), i64 noundef, ptr noundef readonly captures(none), ...) local_unnamed_addr #3

; Function Attrs: cold nofree noreturn nounwind
declare void @abort() local_unnamed_addr #5

; Function Attrs: mustprogress nocallback nofree nosync nounwind speculatable willreturn memory(none)
declare i32 @llvm.umin.i32(i32, i32) #6


!llvm.module.flags = !{!0, !1, !2}

!0 = !{i32 1, !"wchar_size", i32 4}
!1 = !{i32 8, !"PIC Level", i32 2}
!2 = !{i32 7, !"uwtable", i32 2}
!3 = !{!4, !4, i64 0}
!4 = !{!"short", !5, i64 0}
!5 = !{!"omnipotent char", !6, i64 0}
!6 = !{!"Simple C++ TBAA"}
!7 = !{!8, !8, i64 0}
!8 = !{!"any pointer", !5, i64 0}
